target datalayout = "e-m:e-p270:32:32-p271:32:32-p272:64:64-i64:64-i128:128-f80:128-n8:16:32:64-S128"
target triple = "x86_64-pc-linux-gnu"

%struct.expert_field = type { i32, i32 }
%struct.block_data_arg = type { ptr, ptr, ptr }
%struct.info = type { i32, i32, i32, i32, i32, i32, ptr, ptr }

@hf_pcapng_interface_id = internal global i32 0, align 4
@ei_missing_idb = internal global %struct.expert_field zeroinitializer, align 4

; Function Attrs: null_pointer_is_valid sspstrong uwtable
define internal ptr @get_interface_description(ptr noundef %0, i32 noundef %1, ptr noundef %2, ptr noundef %3) #0 {
  %5 = alloca ptr, align 8
  %6 = alloca ptr, align 8
  %7 = alloca i32, align 4
  %8 = alloca ptr, align 8
  %9 = alloca ptr, align 8
  store ptr %0, ptr %6, align 8
  store i32 %1, ptr %7, align 4
  store ptr %2, ptr %8, align 8
  store ptr %3, ptr %9, align 8
  %10 = load i32, ptr %7, align 4
  %11 = load ptr, ptr %6, align 8
  %12 = getelementptr inbounds nuw %struct.info, ptr %11, i32 0, i32 6
  %13 = load ptr, ptr %12, align 8
  %14 = call i32 @wmem_array_get_count(ptr noundef %13)
  %15 = icmp uge i32 %10, %14
  br i1 %15, label %16, label %20

16:                                               ; preds = %4
  %17 = load ptr, ptr %8, align 8
  %18 = load ptr, ptr %9, align 8
  %19 = call ptr @expert_add_info(ptr noundef %17, ptr noundef %18, ptr noundef @ei_missing_idb)
  store ptr null, ptr %5, align 8
  br label %26

20:                                               ; preds = %4
  %21 = load ptr, ptr %6, align 8
  %22 = getelementptr inbounds nuw %struct.info, ptr %21, i32 0, i32 6
  %23 = load ptr, ptr %22, align 8
  %24 = load i32, ptr %7, align 4
  %25 = call ptr @wmem_array_index(ptr noundef %23, i32 noundef %24)
  store ptr %25, ptr %5, align 8
  br label %26

26:                                               ; preds = %20, %16
  %27 = load ptr, ptr %5, align 8
  ret ptr %27
}

; Function Attrs: null_pointer_is_valid sspstrong uwtable
define internal void @dissect_isb_data(ptr noundef %0, ptr noundef %1, ptr noundef %2, ptr noundef %3) #0 {
  %5 = alloca ptr, align 8
  %6 = alloca ptr, align 8
  %7 = alloca ptr, align 8
  %8 = alloca ptr, align 8
  %9 = alloca i32, align 4
  %10 = alloca i32, align 4
  %11 = alloca ptr, align 8
  store ptr %0, ptr %5, align 8
  store ptr %1, ptr %6, align 8
  store ptr %2, ptr %7, align 8
  store ptr %3, ptr %8, align 8
  call void @llvm.lifetime.start.p0(i64 4, ptr %9) #14
  store i32 0, ptr %9, align 4
  call void @llvm.lifetime.start.p0(i64 4, ptr %10) #14
  call void @llvm.lifetime.start.p0(i64 8, ptr %11) #14
  %12 = load ptr, ptr %5, align 8
  %13 = load i32, ptr @hf_pcapng_interface_id, align 4
  %14 = load ptr, ptr %7, align 8
  %15 = load i32, ptr %9, align 4
  %16 = load ptr, ptr %8, align 8
  %17 = getelementptr inbounds nuw %struct.block_data_arg, ptr %16, i32 0, i32 2
  %18 = load ptr, ptr %17, align 8
  %19 = getelementptr inbounds nuw %struct.info, ptr %18, i32 0, i32 5
  %20 = load i32, ptr %19, align 4
  %21 = call ptr @proto_tree_add_item(ptr noundef %12, i32 noundef %13, ptr noundef %14, i32 noundef %15, i32 noundef 4, i32 noundef %20)
  %22 = load ptr, ptr %7, align 8
  %23 = load i32, ptr %9, align 4
  %24 = load ptr, ptr %8, align 8
  %25 = getelementptr inbounds nuw %struct.block_data_arg, ptr %24, i32 0, i32 2
  %26 = load ptr, ptr %25, align 8
  %27 = getelementptr inbounds nuw %struct.info, ptr %26, i32 0, i32 5
  %28 = load i32, ptr %27, align 4
  %29 = call i32 @tvb_get_uint32(ptr noundef %22, i32 noundef %23, i32 noundef %28)
  store i32 %29, ptr %10, align 4
  %30 = load i32, ptr %9, align 4
  %31 = add i32 %30, 4
  store i32 %31, ptr %9, align 4
  %32 = load ptr, ptr %8, align 8
  %33 = getelementptr inbounds nuw %struct.block_data_arg, ptr %32, i32 0, i32 2
  %34 = load ptr, ptr %33, align 8
  %35 = load i32, ptr %10, align 4
  %36 = load ptr, ptr %6, align 8
  %37 = load ptr, ptr %8, align 8
  %38 = getelementptr inbounds nuw %struct.block_data_arg, ptr %37, i32 0, i32 1
  %39 = load ptr, ptr %38, align 8
  %40 = call ptr @get_interface_description(ptr noundef %34, i32 noundef %35, ptr noundef %36, ptr noundef %39)
  store ptr %40, ptr %11, align 8
  %41 = load ptr, ptr %5, align 8
  %42 = load ptr, ptr %6, align 8
  %43 = load ptr, ptr %7, align 8
  %44 = load i32, ptr %9, align 4
  %45 = load ptr, ptr %8, align 8
  %46 = getelementptr inbounds nuw %struct.block_data_arg, ptr %45, i32 0, i32 2
  %47 = load ptr, ptr %46, align 8
  %48 = getelementptr inbounds nuw %struct.info, ptr %47, i32 0, i32 5
  %49 = load i32, ptr %48, align 4
  %50 = load ptr, ptr %11, align 8
  call void @pcapng_add_timestamp(ptr noundef %41, ptr noundef %42, ptr noundef %43, i32 noundef %44, i32 noundef %49, ptr noundef %50)
  %51 = load i32, ptr %9, align 4
  %52 = add i32 %51, 8
  store i32 %52, ptr %9, align 4
  %53 = load ptr, ptr %5, align 8
  %54 = load ptr, ptr %6, align 8
  %55 = load ptr, ptr %7, align 8
  %56 = load i32, ptr %9, align 4
  %57 = load ptr, ptr %8, align 8
  %58 = getelementptr inbounds nuw %struct.block_data_arg, ptr %57, i32 0, i32 2
  %59 = load ptr, ptr %58, align 8
  %60 = getelementptr inbounds nuw %struct.info, ptr %59, i32 0, i32 5
  %61 = load i32, ptr %60, align 4
  %62 = call i32 @dissect_options(ptr noundef %53, ptr noundef %54, i32 noundef 5, ptr noundef %55, i32 noundef %56, i32 noundef %61, ptr noundef null)
  call void @llvm.lifetime.end.p0(i64 8, ptr %11) #14
  call void @llvm.lifetime.end.p0(i64 4, ptr %10) #14
  call void @llvm.lifetime.end.p0(i64 4, ptr %9) #14
  ret void
}