; Function Attrs: null_pointer_is_valid sspstrong uwtable
define internal fastcc void @dissect_isb_data(ptr noundef %0, ptr noundef %1, ptr noundef %2, ptr noundef readonly captures(none) %3) unnamed_addr #0 {
  %5 = load i32, ptr @hf_pcapng_interface_id, align 4
  %6 = getelementptr inbounds nuw i8, ptr %3, i64 16
  %7 = load ptr, ptr %6, align 8
  %8 = getelementptr inbounds nuw i8, ptr %7, i64 20
  %9 = load i32, ptr %8, align 4
  %10 = tail call ptr @proto_tree_add_item(ptr noundef %0, i32 noundef %5, ptr noundef %2, i32 noundef 0, i32 noundef 4, i32 noundef %9)
  %11 = load ptr, ptr %6, align 8
  %12 = getelementptr inbounds nuw i8, ptr %11, i64 20
  %13 = load i32, ptr %12, align 4
  %14 = tail call i32 @tvb_get_uint32(ptr noundef %2, i32 noundef 0, i32 noundef %13)
  %15 = load ptr, ptr %6, align 8
  %16 = getelementptr inbounds nuw i8, ptr %3, i64 8
  %17 = load ptr, ptr %16, align 8
  %18 = getelementptr inbounds nuw i8, ptr %15, i64 24
  %19 = load ptr, ptr %18, align 8
  %20 = tail call i32 @wmem_array_get_count(ptr noundef %19)
  %.not.i = icmp ult i32 %14, %20
  br i1 %.not.i, label %23, label %21

21:                                               ; preds = %4
  %22 = tail call ptr @expert_add_info(ptr noundef %1, ptr noundef %17, ptr noundef nonnull @ei_missing_idb)
  br label %get_interface_description.exit

23:                                               ; preds = %4
  %24 = load ptr, ptr %18, align 8
  %25 = tail call ptr @wmem_array_index(ptr noundef %24, i32 noundef %14)
  br label %get_interface_description.exit

get_interface_description.exit:                   ; preds = %21, %23
  %.0.i = phi ptr [ null, %21 ], [ %25, %23 ]
  %26 = load ptr, ptr %6, align 8
  %27 = getelementptr inbounds nuw i8, ptr %26, i64 20
  %28 = load i32, ptr %27, align 4
  tail call fastcc void @pcapng_add_timestamp(ptr noundef %0, ptr noundef %1, ptr noundef %2, i32 noundef 4, i32 noundef %28, ptr noundef %.0.i)
  %29 = load ptr, ptr %6, align 8
  %30 = getelementptr inbounds nuw i8, ptr %29, i64 20
  %31 = load i32, ptr %30, align 4
  %32 = tail call i32 @dissect_options(ptr noundef %0, ptr noundef %1, i32 noundef 5, ptr noundef %2, i32 noundef 12, i32 noundef %31, ptr noundef null)
  ret void
}